Certificate:
    Data:
        Version: 3 (0x2)
        Serial Number: 1 (0x1)
    Signature Algorithm: sha256WithRSAEncryption
        Issuer: C=CN, ST=SiChuan, L=ChengDu, O=DevOps, OU=kube, CN=ca.ttlinux.com.cn
        Validity
            Not Before: Oct 14 17:20:44 2017 GMT
            Not After : Oct 14 17:20:44 2018 GMT
        Subject: C=CN, ST=SiChuan, O=DevOps, OU=kube, CN=dashboard.ttlinux.com.cn
        Subject Public Key Info:
            Public Key Algorithm: rsaEncryption
                Public-Key: (1024 bit)
                Modulus:
                    00:e4:49:03:3e:4f:60:d7:77:8a:9c:50:d0:d9:28:
                    a4:6d:a1:b7:cb:dc:3d:c5:6b:46:dd:3d:c4:15:88:
                    64:9f:a7:c9:a9:a7:a5:75:41:ec:7e:a5:f2:26:dc:
                    d1:c1:8e:8a:9f:6c:c8:c3:9c:af:ce:4a:57:42:ea:
                    46:c0:fe:10:f1:f5:34:65:13:eb:98:f3:06:50:4c:
                    40:e1:4e:23:69:ee:44:98:f3:bb:9d:3d:3b:70:e4:
                    46:ac:66:eb:87:d9:b0:b1:cb:71:bd:e1:a0:7d:71:
                    80:7b:e9:d2:24:55:f7:7a:d3:dd:49:18:5c:9b:d0:
                    26:3a:f1:61:13:44:c8:57:e9
                Exponent: 65537 (0x10001)
        X509v3 extensions:
            X509v3 Basic Constraints: 
                CA:FALSE
            Netscape Comment: 
                OpenSSL Generated Certificate
            X509v3 Subject Key Identifier: 
                6F:BB:B5:A7:5C:64:08:02:46:92:97:1C:5E:AE:92:E5:4A:7A:5C:0D
            X509v3 Authority Key Identifier: 
                keyid:1A:8E:96:FA:07:4C:70:32:3E:13:AF:41:38:DA:17:A4:FA:20:93:8F

    Signature Algorithm: sha256WithRSAEncryption
         82:92:1d:f1:15:b7:9a:8b:e8:8a:45:d7:1d:fd:16:fa:37:2d:
         30:7d:b0:e7:6a:62:f8:7d:d5:9f:59:c9:27:54:e2:7c:10:f2:
         f4:ab:5c:11:1e:dd:cf:3e:4a:49:dd:57:1b:7f:35:3c:d9:25:
         e2:58:9e:96:88:19:39:43:49:2d:96:d8:2d:76:b8:d1:13:cc:
         99:81:64:28:be:9a:ba:5c:18:dc:dc:d8:92:b1:4e:54:e7:e3:
         e2:1a:8b:61:03:d7:02:cb:f0:e8:7c:4d:ae:a9:e8:a3:d6:15:
         0a:05:0c:43:63:07:9e:e8:14:dc:8c:30:c2:cc:dd:ed:e7:94:
         3e:c2
-----BEGIN CERTIFICATE-----
MIICwDCCAimgAwIBAgIBATANBgkqhkiG9w0BAQsFADBtMQswCQYDVQQGEwJDTjEQ
MA4GA1UECAwHU2lDaHVhbjEQMA4GA1UEBwwHQ2hlbmdEdTEPMA0GA1UECgwGRGV2
T3BzMQ0wCwYDVQQLDARrdWJlMRowGAYDVQQDDBFjYS50dGxpbnV4LmNvbS5jbjAe
Fw0xNzEwMTQxNzIwNDRaFw0xODEwMTQxNzIwNDRaMGIxCzAJBgNVBAYTAkNOMRAw
DgYDVQQIDAdTaUNodWFuMQ8wDQYDVQQKDAZEZXZPcHMxDTALBgNVBAsMBGt1YmUx
ITAfBgNVBAMMGGRhc2hib2FyZC50dGxpbnV4LmNvbS5jbjCBnzANBgkqhkiG9w0B
AQEFAAOBjQAwgYkCgYEA5EkDPk9g13eKnFDQ2SikbaG3y9w9xWtG3T3EFYhkn6fJ
qaeldUHsfqXyJtzRwY6Kn2zIw5yvzkpXQupGwP4Q8fU0ZRPrmPMGUExA4U4jae5E
mPO7nT07cORGrGbrh9mwsctxveGgfXGAe+nSJFX3etPdSRhcm9AmOvFhE0TIV+kC
AwEAAaN7MHkwCQYDVR0TBAIwADAsBglghkgBhvhCAQ0EHxYdT3BlblNTTCBHZW5l
cmF0ZWQgQ2VydGlmaWNhdGUwHQYDVR0OBBYEFG+7tadcZAgCRpKXHF6ukuVKelwN
MB8GA1UdIwQYMBaAFBqOlvoHTHAyPhOvQTjaF6T6IJOPMA0GCSqGSIb3DQEBCwUA
A4GBAIKSHfEVt5qL6IpF1x39Fvo3LTB9sOdqYvh91Z9ZySdU4nwQ8vSrXBEe3c8+
SkndVxt/NTzZJeJYnpaIGTlDSS2W2C12uNETzJmBZCi+mrpcGNzc2JKxTlTn4+Ia
i2ED1wLL8Oh8Ta6p6KPWFQoFDENjB57oFNyMMMLM3e3nlD7C
-----END CERTIFICATE-----
